; Function Attrs: mustprogress uwtable
define noalias ptr @lean_get_stdout(ptr noundef readnone captures(none) %0) local_unnamed_addr #0 personality ptr @__gxx_personality_v0 {
  %2 = tail call align 8 ptr @llvm.threadlocal.address.p0(ptr align 8 @_ZN4leanL32get_stream_current_stdout_tlocalE)
  %3 = load ptr, ptr %2, align 8, !tbaa !40
  %.not.i = icmp eq ptr %3, null
  br i1 %.not.i, label %4, label %_ZN4leanL25get_stream_current_stdoutEv.exit

4:                                                ; preds = %1
  %5 = tail call noalias noundef nonnull dereferenceable(8) ptr @_Znwm(i64 noundef 8) #29
  %6 = load ptr, ptr @_ZN4leanL15g_stream_stdoutE, align 8, !tbaa !3
  store ptr %6, ptr %5, align 8, !tbaa !42
  store ptr %5, ptr %2, align 8, !tbaa !40
  tail call void @_ZN4lean25register_thread_finalizerEPFvPvES0_(ptr noundef nonnull @_ZN4leanL34finalize_get_stream_current_stdoutEPv, ptr noundef nonnull %5)
  %.pre.i = load ptr, ptr %2, align 8, !tbaa !40
  br label %_ZN4leanL25get_stream_current_stdoutEv.exit

_ZN4leanL25get_stream_current_stdoutEv.exit:      ; preds = %1, %4
  %7 = phi ptr [ %.pre.i, %4 ], [ %3, %1 ]
  %8 = load ptr, ptr %7, align 8, !tbaa !42
  %9 = ptrtoint ptr %8 to i64
  %10 = and i64 %9, 1
  %.not.i.i = icmp eq i64 %10, 0
  br i1 %.not.i.i, label %11, label %_ZNK4lean10object_ref10to_obj_argEv.exit

11:                                               ; preds = %_ZN4leanL25get_stream_current_stdoutEv.exit
  %.val.i.i.i = load i32, ptr %8, align 4, !tbaa !7
  %12 = icmp sgt i32 %.val.i.i.i, 0
  br i1 %12, label %13, label %15, !prof !10

13:                                               ; preds = %11
  %14 = add nuw nsw i32 %.val.i.i.i, 1
  store i32 %14, ptr %8, align 4, !tbaa !7
  br label %_ZNK4lean10object_ref10to_obj_argEv.exit

15:                                               ; preds = %11
  %.not.i.i.i = icmp eq i32 %.val.i.i.i, 0
  br i1 %.not.i.i.i, label %_ZNK4lean10object_ref10to_obj_argEv.exit, label %16

16:                                               ; preds = %15
  tail call void @lean_inc_ref_cold(ptr noundef nonnull %8)
  %.pre.i1 = load ptr, ptr %7, align 8, !tbaa !42
  br label %_ZNK4lean10object_ref10to_obj_argEv.exit

_ZNK4lean10object_ref10to_obj_argEv.exit:         ; preds = %_ZN4leanL25get_stream_current_stdoutEv.exit, %13, %15, %16
  %17 = phi ptr [ %8, %_ZN4leanL25get_stream_current_stdoutEv.exit ], [ %8, %13 ], [ %8, %15 ], [ %.pre.i1, %16 ]
  tail call void @lean_inc_heartbeat()
  %18 = tail call noalias ptr @mi_malloc_small(i64 noundef 24) #27
  %19 = icmp eq ptr %18, null
  br i1 %19, label %20, label %_ZN4lean15io_result_mk_okEP11lean_object.exit

20:                                               ; preds = %_ZNK4lean10object_ref10to_obj_argEv.exit
  tail call void @lean_internal_panic_out_of_memory() #28
  unreachable

_ZN4lean15io_result_mk_okEP11lean_object.exit:    ; preds = %_ZNK4lean10object_ref10to_obj_argEv.exit
  %21 = getelementptr inbounds nuw i8, ptr %18, i64 4
  store i32 1, ptr %18, align 4, !tbaa !7
  store i32 131096, ptr %21, align 4
  %22 = getelementptr inbounds nuw i8, ptr %18, i64 8
  store ptr %17, ptr %22, align 8, !tbaa !3
  %23 = getelementptr inbounds nuw i8, ptr %18, i64 16
  store ptr inttoptr (i64 1 to ptr), ptr %23, align 8, !tbaa !3
  ret ptr %18
}